target datalayout = "e-m:e-p270:32:32-p271:32:32-p272:64:64-i64:64-i128:128-f80:128-n8:16:32:64-S128"
target triple = "x86_64-pc-linux-gnu"

%"struct.Luau::CodeGen::X64::OperandX64" = type { i8, %"struct.Luau::CodeGen::X64::RegisterX64", %"struct.Luau::CodeGen::X64::RegisterX64", i8, i32 }
%"struct.Luau::CodeGen::X64::RegisterX64" = type { i8 }
%"class.Luau::CodeGen::X64::IrCallWrapperX64" = type { ptr, ptr, i32, %"struct.std::array", i32, i32, i32, %"struct.Luau::CodeGen::X64::OperandX64", %"struct.std::array.16", %"struct.std::array.16" }
%"struct.std::array" = type { [6 x %"struct.Luau::CodeGen::X64::CallArgument"] }
%"struct.Luau::CodeGen::X64::CallArgument" = type <{ i8, [3 x i8], %"struct.Luau::CodeGen::X64::OperandX64", %"struct.Luau::CodeGen::IrOp", %"struct.Luau::CodeGen::X64::OperandX64", i8, [3 x i8] }>
%"struct.Luau::CodeGen::IrOp" = type { i32 }
%"struct.std::array.16" = type { [16 x i8] }
%"struct.Luau::CodeGen::Label" = type { i32, i32 }
%"struct.Luau::CodeGen::X64::ScopedRegX64" = type <{ ptr, %"struct.Luau::CodeGen::X64::RegisterX64", [7 x i8] }>
%"struct.Luau::CodeGen::X64::ScopedSpills" = type <{ ptr, i32, [4 x i8] }>

@_ZN4Luau7CodeGen3X64L5qwordE = internal constant %"struct.Luau::CodeGen::X64::OperandX64" { i8 1, %"struct.Luau::CodeGen::X64::RegisterX64" { i8 -128 }, %"struct.Luau::CodeGen::X64::RegisterX64" { i8 -128 }, i8 20, i32 0 }, align 4
@_ZN4Luau7CodeGen3X64L6rStateE = internal constant %"struct.Luau::CodeGen::X64::RegisterX64" { i8 124 }, align 1
@_ZN4Luau7CodeGen3X64L14rNativeContextE = internal constant %"struct.Luau::CodeGen::X64::RegisterX64" { i8 108 }, align 1
@_ZN4Luau7CodeGen3X64L5noregE = internal constant %"struct.Luau::CodeGen::X64::RegisterX64" { i8 -128 }, align 1

; Function Attrs: mustprogress nounwind uwtable
define linkonce_odr dso_local void @_ZN4Luau7CodeGen3X6410OperandX64C2ENS1_7SizeX64ENS1_11RegisterX64EhS4_i(ptr noundef nonnull align 4 dereferenceable(8) %0, i8 noundef zeroext %1, i8 %2, i8 noundef zeroext %3, i8 %4, i32 noundef %5) unnamed_addr #4 comdat align 2 {
  %7 = alloca %"struct.Luau::CodeGen::X64::RegisterX64", align 1
  %8 = alloca %"struct.Luau::CodeGen::X64::RegisterX64", align 1
  %9 = alloca ptr, align 8
  %10 = alloca i8, align 1
  %11 = alloca i8, align 1
  %12 = alloca i32, align 4
  %13 = getelementptr inbounds nuw %"struct.Luau::CodeGen::X64::RegisterX64", ptr %7, i32 0, i32 0
  store i8 %2, ptr %13, align 1
  %14 = getelementptr inbounds nuw %"struct.Luau::CodeGen::X64::RegisterX64", ptr %8, i32 0, i32 0
  store i8 %4, ptr %14, align 1
  store ptr %0, ptr %9, align 8, !tbaa !24
  store i8 %1, ptr %10, align 1, !tbaa !73
  store i8 %3, ptr %11, align 1, !tbaa !21
  store i32 %5, ptr %12, align 4, !tbaa !22
  %15 = load ptr, ptr %9, align 8
  %16 = getelementptr inbounds nuw %"struct.Luau::CodeGen::X64::OperandX64", ptr %15, i32 0, i32 0
  store i8 1, ptr %16, align 4, !tbaa !13
  %17 = getelementptr inbounds nuw %"struct.Luau::CodeGen::X64::OperandX64", ptr %15, i32 0, i32 1
  call void @llvm.memcpy.p0.p0.i64(ptr align 1 %17, ptr align 1 %7, i64 1, i1 false), !tbaa.struct !23
  %18 = getelementptr inbounds nuw %"struct.Luau::CodeGen::X64::OperandX64", ptr %15, i32 0, i32 2
  call void @llvm.memcpy.p0.p0.i64(ptr align 2 %18, ptr align 1 %8, i64 1, i1 false), !tbaa.struct !23
  %19 = getelementptr inbounds nuw %"struct.Luau::CodeGen::X64::OperandX64", ptr %15, i32 0, i32 3
  %20 = load i8, ptr %10, align 1, !tbaa !73
  %21 = load i8, ptr %19, align 1
  %22 = and i8 %20, 15
  %23 = and i8 %21, -16
  %24 = or i8 %23, %22
  store i8 %24, ptr %19, align 1
  %25 = getelementptr inbounds nuw %"struct.Luau::CodeGen::X64::OperandX64", ptr %15, i32 0, i32 3
  %26 = load i8, ptr %11, align 1, !tbaa !21
  %27 = load i8, ptr %25, align 1
  %28 = and i8 %26, 15
  %29 = shl i8 %28, 4
  %30 = and i8 %27, 15
  %31 = or i8 %30, %29
  store i8 %31, ptr %25, align 1
  %32 = getelementptr inbounds nuw %"struct.Luau::CodeGen::X64::OperandX64", ptr %15, i32 0, i32 4
  %33 = load i32, ptr %12, align 4, !tbaa !22
  store i32 %33, ptr %32, align 4, !tbaa !26
  ret void
}

; Function Attrs: mustprogress nounwind uwtable
define linkonce_odr dso_local i64 @_ZNK4Luau7CodeGen3X6410OperandX64ixEOS2_(ptr noundef nonnull align 4 dereferenceable(8) %0, ptr noundef nonnull align 4 dereferenceable(8) %1) #4 comdat align 2 {
  %3 = alloca %"struct.Luau::CodeGen::X64::OperandX64", align 4
  %4 = alloca ptr, align 8
  %5 = alloca ptr, align 8
  store ptr %0, ptr %4, align 8, !tbaa !24
  store ptr %1, ptr %5, align 8, !tbaa !24
  %6 = load ptr, ptr %4, align 8
  %7 = load ptr, ptr %5, align 8, !tbaa !24
  %8 = getelementptr inbounds nuw %"struct.Luau::CodeGen::X64::OperandX64", ptr %7, i32 0, i32 0
  store i8 1, ptr %8, align 4, !tbaa !13
  %9 = getelementptr inbounds nuw %"struct.Luau::CodeGen::X64::OperandX64", ptr %6, i32 0, i32 3
  %10 = load i8, ptr %9, align 1
  %11 = and i8 %10, 15
  %12 = load ptr, ptr %5, align 8, !tbaa !24
  %13 = getelementptr inbounds nuw %"struct.Luau::CodeGen::X64::OperandX64", ptr %12, i32 0, i32 3
  %14 = load i8, ptr %13, align 1
  %15 = and i8 %11, 15
  %16 = and i8 %14, -16
  %17 = or i8 %16, %15
  store i8 %17, ptr %13, align 1
  %18 = load ptr, ptr %5, align 8, !tbaa !24
  call void @llvm.memcpy.p0.p0.i64(ptr align 4 %3, ptr align 4 %18, i64 8, i1 false), !tbaa.struct !19
  %19 = load i64, ptr %3, align 4
  ret i64 %19
}

; Function Attrs: mustprogress uwtable
define linkonce_odr dso_local i64 @_ZN4Luau7CodeGen3X64plENS1_11RegisterX64Ei(i8 %0, i32 noundef %1) #0 comdat {
  %3 = alloca %"struct.Luau::CodeGen::X64::OperandX64", align 4
  %4 = alloca %"struct.Luau::CodeGen::X64::RegisterX64", align 1
  %5 = alloca i32, align 4
  %6 = alloca %"struct.Luau::CodeGen::X64::RegisterX64", align 1
  %7 = alloca %"struct.Luau::CodeGen::X64::RegisterX64", align 1
  %8 = getelementptr inbounds nuw %"struct.Luau::CodeGen::X64::RegisterX64", ptr %4, i32 0, i32 0
  store i8 %0, ptr %8, align 1
  store i32 %1, ptr %5, align 4, !tbaa !22
  call void @llvm.memcpy.p0.p0.i64(ptr align 1 %6, ptr align 1 @_ZN4Luau7CodeGen3X64L5noregE, i64 1, i1 false), !tbaa.struct !23
  call void @llvm.memcpy.p0.p0.i64(ptr align 1 %7, ptr align 1 %4, i64 1, i1 false), !tbaa.struct !23
  %9 = load i32, ptr %5, align 4, !tbaa !22
  %10 = getelementptr inbounds nuw %"struct.Luau::CodeGen::X64::RegisterX64", ptr %6, i32 0, i32 0
  %11 = load i8, ptr %10, align 1
  %12 = getelementptr inbounds nuw %"struct.Luau::CodeGen::X64::RegisterX64", ptr %7, i32 0, i32 0
  %13 = load i8, ptr %12, align 1
  call void @_ZN4Luau7CodeGen3X6410OperandX64C2ENS1_7SizeX64ENS1_11RegisterX64EhS4_i(ptr noundef nonnull align 4 dereferenceable(8) %3, i8 noundef zeroext 0, i8 %11, i8 noundef zeroext 1, i8 %13, i32 noundef %9)
  %14 = load i64, ptr %3, align 4
  ret i64 %14
}

; Function Attrs: mustprogress nounwind uwtable
define linkonce_odr dso_local void @_ZN4Luau7CodeGen4IrOpC2Ev(ptr noundef nonnull align 4 dereferenceable(4) %0) unnamed_addr #4 comdat align 2 {
  %2 = alloca ptr, align 8
  store ptr %0, ptr %2, align 8, !tbaa !31
  %3 = load ptr, ptr %2, align 8
  %4 = load i32, ptr %3, align 4
  %5 = and i32 %4, -16
  %6 = or i32 %5, 0
  store i32 %6, ptr %3, align 4
  %7 = load i32, ptr %3, align 4
  %8 = and i32 %7, 15
  %9 = or i32 %8, 0
  store i32 %9, ptr %3, align 4
  ret void
}

; Function Attrs: mustprogress nounwind uwtable
define linkonce_odr dso_local void @_ZN4Luau7CodeGen3X6410OperandX64C2ENS1_11RegisterX64E(ptr noundef nonnull align 4 dereferenceable(8) %0, i8 %1) unnamed_addr #4 comdat align 2 {
  %3 = alloca %"struct.Luau::CodeGen::X64::RegisterX64", align 1
  %4 = alloca ptr, align 8
  %5 = getelementptr inbounds nuw %"struct.Luau::CodeGen::X64::RegisterX64", ptr %3, i32 0, i32 0
  store i8 %1, ptr %5, align 1
  store ptr %0, ptr %4, align 8, !tbaa !24
  %6 = load ptr, ptr %4, align 8
  %7 = getelementptr inbounds nuw %"struct.Luau::CodeGen::X64::OperandX64", ptr %6, i32 0, i32 0
  store i8 0, ptr %7, align 4, !tbaa !13
  %8 = getelementptr inbounds nuw %"struct.Luau::CodeGen::X64::OperandX64", ptr %6, i32 0, i32 1
  call void @llvm.memcpy.p0.p0.i64(ptr align 1 %8, ptr align 1 @_ZN4Luau7CodeGen3X64L5noregE, i64 1, i1 false), !tbaa.struct !23
  %9 = getelementptr inbounds nuw %"struct.Luau::CodeGen::X64::OperandX64", ptr %6, i32 0, i32 2
  call void @llvm.memcpy.p0.p0.i64(ptr align 2 %9, ptr align 1 %3, i64 1, i1 false), !tbaa.struct !23
  %10 = getelementptr inbounds nuw %"struct.Luau::CodeGen::X64::OperandX64", ptr %6, i32 0, i32 3
  %11 = load i8, ptr %10, align 1
  %12 = and i8 %11, -16
  %13 = or i8 %12, 0
  store i8 %13, ptr %10, align 1
  %14 = getelementptr inbounds nuw %"struct.Luau::CodeGen::X64::OperandX64", ptr %6, i32 0, i32 3
  %15 = load i8, ptr %14, align 1
  %16 = and i8 %15, 15
  %17 = or i8 %16, 16
  store i8 %17, ptr %14, align 1
  %18 = getelementptr inbounds nuw %"struct.Luau::CodeGen::X64::OperandX64", ptr %6, i32 0, i32 4
  store i32 0, ptr %18, align 4, !tbaa !26
  ret void
}

; Function Attrs: inlinehint mustprogress nounwind uwtable
define linkonce_odr dso_local void @_ZN4Luau7CodeGen5LabelC2Ev(ptr noundef nonnull align 4 dereferenceable(8) %0) unnamed_addr #1 comdat align 2 {
  %2 = alloca ptr, align 8
  store ptr %0, ptr %2, align 8, !tbaa !11
  %3 = load ptr, ptr %2, align 8
  %4 = getelementptr inbounds nuw %"struct.Luau::CodeGen::Label", ptr %3, i32 0, i32 0
  store i32 0, ptr %4, align 4, !tbaa !34
  %5 = getelementptr inbounds nuw %"struct.Luau::CodeGen::Label", ptr %3, i32 0, i32 1
  store i32 -1, ptr %5, align 4, !tbaa !36
  ret void
}

; Function Attrs: mustprogress uwtable
define dso_local void @_ZN4Luau7CodeGen3X6417callBarrierObjectERNS1_13IrRegAllocX64ERNS1_18AssemblyBuilderX64ENS1_11RegisterX64ENS0_4IrOpES7_i(ptr noundef nonnull align 8 dereferenceable(256) %0, ptr noundef nonnull align 8 dereferenceable(252) %1, i8 %2, i32 %3, i32 %4, i32 noundef %5) #0 personality ptr @__gxx_personality_v0 {
  %7 = alloca %"struct.Luau::CodeGen::X64::RegisterX64", align 1
  %8 = alloca %"struct.Luau::CodeGen::IrOp", align 4
  %9 = alloca %"struct.Luau::CodeGen::IrOp", align 4
  %10 = alloca ptr, align 8
  %11 = alloca ptr, align 8
  %12 = alloca i32, align 4
  %13 = alloca %"struct.Luau::CodeGen::Label", align 4
  %14 = alloca %"struct.Luau::CodeGen::X64::ScopedRegX64", align 8
  %15 = alloca %"struct.Luau::CodeGen::X64::RegisterX64", align 1
  %16 = alloca %"struct.Luau::CodeGen::X64::RegisterX64", align 1
  %17 = alloca %"struct.Luau::CodeGen::IrOp", align 4
  %18 = alloca ptr, align 8
  %19 = alloca i32, align 4
  %20 = alloca %"struct.Luau::CodeGen::X64::ScopedSpills", align 8
  %21 = alloca %"class.Luau::CodeGen::X64::IrCallWrapperX64", align 8
  %22 = alloca %"struct.Luau::CodeGen::X64::OperandX64", align 4
  %23 = alloca %"struct.Luau::CodeGen::X64::RegisterX64", align 1
  %24 = alloca %"struct.Luau::CodeGen::IrOp", align 4
  %25 = alloca %"struct.Luau::CodeGen::X64::OperandX64", align 4
  %26 = alloca %"struct.Luau::CodeGen::X64::RegisterX64", align 1
  %27 = alloca %"struct.Luau::CodeGen::IrOp", align 4
  %28 = alloca %"struct.Luau::CodeGen::X64::OperandX64", align 4
  %29 = alloca %"struct.Luau::CodeGen::X64::OperandX64", align 4
  %30 = alloca %"struct.Luau::CodeGen::X64::RegisterX64", align 1
  %31 = getelementptr inbounds nuw %"struct.Luau::CodeGen::X64::RegisterX64", ptr %7, i32 0, i32 0
  store i8 %2, ptr %31, align 1
  %32 = getelementptr inbounds nuw %"struct.Luau::CodeGen::IrOp", ptr %8, i32 0, i32 0
  store i32 %3, ptr %32, align 4
  %33 = getelementptr inbounds nuw %"struct.Luau::CodeGen::IrOp", ptr %9, i32 0, i32 0
  store i32 %4, ptr %33, align 4
  store ptr %0, ptr %10, align 8, !tbaa !27
  store ptr %1, ptr %11, align 8, !tbaa !4
  store i32 %5, ptr %12, align 4, !tbaa !22
  call void @llvm.lifetime.start.p0(i64 8, ptr %13) #8
  call void @_ZN4Luau7CodeGen5LabelC2Ev(ptr noundef nonnull align 4 dereferenceable(8) %13) #8
  call void @llvm.lifetime.start.p0(i64 16, ptr %14) #8
  %34 = load ptr, ptr %10, align 8, !tbaa !27
  call void @_ZN4Luau7CodeGen3X6412ScopedRegX64C1ERNS1_13IrRegAllocX64ENS1_7SizeX64E(ptr noundef nonnull align 8 dereferenceable(9) %14, ptr noundef nonnull align 8 dereferenceable(256) %34, i8 noundef zeroext 4)
  %35 = load ptr, ptr %11, align 8, !tbaa !4
  %36 = getelementptr inbounds nuw %"struct.Luau::CodeGen::X64::ScopedRegX64", ptr %14, i32 0, i32 1
  call void @llvm.memcpy.p0.p0.i64(ptr align 1 %15, ptr align 8 %36, i64 1, i1 false), !tbaa.struct !23
  call void @llvm.memcpy.p0.p0.i64(ptr align 1 %16, ptr align 1 %7, i64 1, i1 false), !tbaa.struct !23
  call void @llvm.memcpy.p0.p0.i64(ptr align 4 %17, ptr align 4 %9, i64 4, i1 false), !tbaa.struct !33
  %37 = load i32, ptr %12, align 4, !tbaa !22
  %38 = getelementptr inbounds nuw %"struct.Luau::CodeGen::X64::RegisterX64", ptr %15, i32 0, i32 0
  %39 = load i8, ptr %38, align 1
  %40 = getelementptr inbounds nuw %"struct.Luau::CodeGen::X64::RegisterX64", ptr %16, i32 0, i32 0
  %41 = load i8, ptr %40, align 1
  %42 = getelementptr inbounds nuw %"struct.Luau::CodeGen::IrOp", ptr %17, i32 0, i32 0
  %43 = load i32, ptr %42, align 4
  invoke void @_ZN4Luau7CodeGen3X6428checkObjectBarrierConditionsERNS1_18AssemblyBuilderX64ENS1_11RegisterX64ES4_NS0_4IrOpEiRNS0_5LabelE(ptr noundef nonnull align 8 dereferenceable(252) %35, i8 %39, i8 %41, i32 %43, i32 noundef %37, ptr noundef nonnull align 4 dereferenceable(8) %13)
          to label %44 unwind label %75

44:                                               ; preds = %6
  call void @llvm.lifetime.start.p0(i64 16, ptr %20) #8
  %45 = load ptr, ptr %10, align 8, !tbaa !27
  invoke void @_ZN4Luau7CodeGen3X6412ScopedSpillsC1ERNS1_13IrRegAllocX64E(ptr noundef nonnull align 8 dereferenceable(12) %20, ptr noundef nonnull align 8 dereferenceable(256) %45)
          to label %46 unwind label %79

46:                                               ; preds = %44
  call void @llvm.lifetime.start.p0(i64 240, ptr %21) #8
  %47 = load ptr, ptr %10, align 8, !tbaa !27
  %48 = load ptr, ptr %11, align 8, !tbaa !4
  invoke void @_ZN4Luau7CodeGen3X6416IrCallWrapperX64C1ERNS1_13IrRegAllocX64ERNS1_18AssemblyBuilderX64Ej(ptr noundef nonnull align 8 dereferenceable(240) %21, ptr noundef nonnull align 8 dereferenceable(256) %47, ptr noundef nonnull align 8 dereferenceable(252) %48, i32 noundef -1)
          to label %49 unwind label %83

49:                                               ; preds = %46
  call void @llvm.memcpy.p0.p0.i64(ptr align 1 %23, ptr align 1 @_ZN4Luau7CodeGen3X64L6rStateE, i64 1, i1 false), !tbaa.struct !23
  %50 = getelementptr inbounds nuw %"struct.Luau::CodeGen::X64::RegisterX64", ptr %23, i32 0, i32 0
  %51 = load i8, ptr %50, align 1
  invoke void @_ZN4Luau7CodeGen3X6410OperandX64C2ENS1_11RegisterX64E(ptr noundef nonnull align 4 dereferenceable(8) %22, i8 %51)
          to label %52 unwind label %83

52:                                               ; preds = %49
  invoke void @_ZN4Luau7CodeGen4IrOpC2Ev(ptr noundef nonnull align 4 dereferenceable(4) %24)
          to label %53 unwind label %83

53:                                               ; preds = %52
  %54 = load i64, ptr %22, align 4
  %55 = getelementptr inbounds nuw %"struct.Luau::CodeGen::IrOp", ptr %24, i32 0, i32 0
  %56 = load i32, ptr %55, align 4
  invoke void @_ZN4Luau7CodeGen3X6416IrCallWrapperX6411addArgumentENS1_7SizeX64ENS1_10OperandX64ENS0_4IrOpE(ptr noundef nonnull align 8 dereferenceable(240) %21, i8 noundef zeroext 4, i64 %54, i32 %56)
          to label %57 unwind label %83

57:                                               ; preds = %53
  call void @llvm.memcpy.p0.p0.i64(ptr align 1 %26, ptr align 1 %7, i64 1, i1 false), !tbaa.struct !23
  %58 = getelementptr inbounds nuw %"struct.Luau::CodeGen::X64::RegisterX64", ptr %26, i32 0, i32 0
  %59 = load i8, ptr %58, align 1
  invoke void @_ZN4Luau7CodeGen3X6410OperandX64C2ENS1_11RegisterX64E(ptr noundef nonnull align 4 dereferenceable(8) %25, i8 %59)
          to label %60 unwind label %83

60:                                               ; preds = %57
  call void @llvm.memcpy.p0.p0.i64(ptr align 4 %27, ptr align 4 %8, i64 4, i1 false), !tbaa.struct !33
  %61 = load i64, ptr %25, align 4
  %62 = getelementptr inbounds nuw %"struct.Luau::CodeGen::IrOp", ptr %27, i32 0, i32 0
  %63 = load i32, ptr %62, align 4
  invoke void @_ZN4Luau7CodeGen3X6416IrCallWrapperX6411addArgumentENS1_7SizeX64ENS1_10OperandX64ENS0_4IrOpE(ptr noundef nonnull align 8 dereferenceable(240) %21, i8 noundef zeroext 4, i64 %61, i32 %63)
          to label %64 unwind label %83

64:                                               ; preds = %60
  invoke void @_ZN4Luau7CodeGen3X6416IrCallWrapperX6411addArgumentENS1_7SizeX64ERNS1_12ScopedRegX64E(ptr noundef nonnull align 8 dereferenceable(240) %21, i8 noundef zeroext 4, ptr noundef nonnull align 8 dereferenceable(9) %14)
          to label %65 unwind label %83

65:                                               ; preds = %64
  call void @llvm.lifetime.start.p0(i64 8, ptr %28) #8
  call void @llvm.lifetime.start.p0(i64 8, ptr %29) #8
  call void @llvm.memcpy.p0.p0.i64(ptr align 1 %30, ptr align 1 @_ZN4Luau7CodeGen3X64L14rNativeContextE, i64 1, i1 false), !tbaa.struct !23
  %66 = getelementptr inbounds nuw %"struct.Luau::CodeGen::X64::RegisterX64", ptr %30, i32 0, i32 0
  %67 = load i8, ptr %66, align 1
  %68 = invoke i64 @_ZN4Luau7CodeGen3X64plENS1_11RegisterX64Ei(i8 %67, i32 noundef 192)
          to label %69 unwind label %87

69:                                               ; preds = %65
  store i64 %68, ptr %29, align 4
  %70 = invoke i64 @_ZNK4Luau7CodeGen3X6410OperandX64ixEOS2_(ptr noundef nonnull align 4 dereferenceable(8) @_ZN4Luau7CodeGen3X64L5qwordE, ptr noundef nonnull align 4 dereferenceable(8) %29)
          to label %71 unwind label %87

71:                                               ; preds = %69
  store i64 %70, ptr %28, align 4
  invoke void @_ZN4Luau7CodeGen3X6416IrCallWrapperX644callERKNS1_10OperandX64E(ptr noundef nonnull align 8 dereferenceable(240) %21, ptr noundef nonnull align 4 dereferenceable(8) %28)
          to label %72 unwind label %87

72:                                               ; preds = %71
  call void @llvm.lifetime.end.p0(i64 8, ptr %29) #8
  call void @llvm.lifetime.end.p0(i64 8, ptr %28) #8
  call void @llvm.lifetime.end.p0(i64 240, ptr %21) #8
  call void @_ZN4Luau7CodeGen3X6412ScopedSpillsD1Ev(ptr noundef nonnull align 8 dereferenceable(12) %20) #8
  call void @llvm.lifetime.end.p0(i64 16, ptr %20) #8
  %73 = load ptr, ptr %11, align 8, !tbaa !4
  invoke void @_ZN4Luau7CodeGen3X6418AssemblyBuilderX648setLabelERNS0_5LabelE(ptr noundef nonnull align 8 dereferenceable(252) %73, ptr noundef nonnull align 4 dereferenceable(8) %13)
          to label %74 unwind label %75

74:                                               ; preds = %72
  call void @_ZN4Luau7CodeGen3X6412ScopedRegX64D1Ev(ptr noundef nonnull align 8 dereferenceable(9) %14) #8
  call void @llvm.lifetime.end.p0(i64 16, ptr %14) #8
  call void @llvm.lifetime.end.p0(i64 8, ptr %13) #8
  ret void

75:                                               ; preds = %72, %6
  %76 = landingpad { ptr, i32 }
          cleanup
  %77 = extractvalue { ptr, i32 } %76, 0
  store ptr %77, ptr %18, align 8
  %78 = extractvalue { ptr, i32 } %76, 1
  store i32 %78, ptr %19, align 4
  br label %93

79:                                               ; preds = %44
  %80 = landingpad { ptr, i32 }
          cleanup
  %81 = extractvalue { ptr, i32 } %80, 0
  store ptr %81, ptr %18, align 8
  %82 = extractvalue { ptr, i32 } %80, 1
  store i32 %82, ptr %19, align 4
  br label %92

83:                                               ; preds = %64, %60, %57, %53, %52, %49, %46
  %84 = landingpad { ptr, i32 }
          cleanup
  %85 = extractvalue { ptr, i32 } %84, 0
  store ptr %85, ptr %18, align 8
  %86 = extractvalue { ptr, i32 } %84, 1
  store i32 %86, ptr %19, align 4
  br label %91

87:                                               ; preds = %71, %69, %65
  %88 = landingpad { ptr, i32 }
          cleanup
  %89 = extractvalue { ptr, i32 } %88, 0
  store ptr %89, ptr %18, align 8
  %90 = extractvalue { ptr, i32 } %88, 1
  store i32 %90, ptr %19, align 4
  call void @llvm.lifetime.end.p0(i64 8, ptr %29) #8
  call void @llvm.lifetime.end.p0(i64 8, ptr %28) #8
  br label %91

91:                                               ; preds = %87, %83
  call void @llvm.lifetime.end.p0(i64 240, ptr %21) #8
  call void @_ZN4Luau7CodeGen3X6412ScopedSpillsD1Ev(ptr noundef nonnull align 8 dereferenceable(12) %20) #8
  br label %92

92:                                               ; preds = %91, %79
  call void @llvm.lifetime.end.p0(i64 16, ptr %20) #8
  br label %93

93:                                               ; preds = %92, %75
  call void @_ZN4Luau7CodeGen3X6412ScopedRegX64D1Ev(ptr noundef nonnull align 8 dereferenceable(9) %14) #8
  call void @llvm.lifetime.end.p0(i64 16, ptr %14) #8
  call void @llvm.lifetime.end.p0(i64 8, ptr %13) #8
  br label %94

94:                                               ; preds = %93
  %95 = load ptr, ptr %18, align 8
  %96 = load i32, ptr %19, align 4
  %97 = insertvalue { ptr, i32 } poison, ptr %95, 0
  %98 = insertvalue { ptr, i32 } %97, i32 %96, 1
  resume { ptr, i32 } %98
}