; Function Attrs: mustprogress uwtable
define dso_local void @_ZN4Luau7CodeGen3X6417callBarrierObjectERNS1_13IrRegAllocX64ERNS1_18AssemblyBuilderX64ENS1_11RegisterX64ENS0_4IrOpES7_i(ptr noundef nonnull align 8 dereferenceable(256) %0, ptr noundef nonnull align 8 dereferenceable(252) %1, i8 %2, i32 %3, i32 %4, i32 noundef %5) local_unnamed_addr #0 personality ptr @__gxx_personality_v0 {
  %7 = alloca %"struct.Luau::CodeGen::Label", align 4
  %8 = alloca %"struct.Luau::CodeGen::X64::ScopedRegX64", align 8
  %9 = alloca %"struct.Luau::CodeGen::X64::ScopedSpills", align 8
  %10 = alloca %"class.Luau::CodeGen::X64::IrCallWrapperX64", align 8
  %11 = alloca %"struct.Luau::CodeGen::X64::OperandX64", align 8
  call void @llvm.lifetime.start.p0(i64 8, ptr nonnull %7) #5
  store i32 0, ptr %7, align 4, !tbaa !4
  %12 = getelementptr inbounds nuw i8, ptr %7, i64 4
  store i32 -1, ptr %12, align 4, !tbaa !9
  call void @llvm.lifetime.start.p0(i64 16, ptr nonnull %8) #5
  call void @_ZN4Luau7CodeGen3X6412ScopedRegX64C1ERNS1_13IrRegAllocX64ENS1_7SizeX64E(ptr noundef nonnull align 8 dereferenceable(9) %8, ptr noundef nonnull align 8 dereferenceable(256) %0, i8 noundef zeroext 4)
  %13 = getelementptr inbounds nuw i8, ptr %8, i64 8
  %.sroa.06.0.copyload = load i8, ptr %13, align 8, !tbaa !10
  invoke void @_ZN4Luau7CodeGen3X6428checkObjectBarrierConditionsERNS1_18AssemblyBuilderX64ENS1_11RegisterX64ES4_NS0_4IrOpEiRNS0_5LabelE(ptr noundef nonnull align 8 dereferenceable(252) %1, i8 %.sroa.06.0.copyload, i8 %2, i32 %4, i32 noundef %5, ptr noundef nonnull align 4 dereferenceable(8) %7)
          to label %14 unwind label %22

14:                                               ; preds = %6
  call void @llvm.lifetime.start.p0(i64 16, ptr nonnull %9) #5
  invoke void @_ZN4Luau7CodeGen3X6412ScopedSpillsC1ERNS1_13IrRegAllocX64E(ptr noundef nonnull align 8 dereferenceable(12) %9, ptr noundef nonnull align 8 dereferenceable(256) %0)
          to label %15 unwind label %24

15:                                               ; preds = %14
  call void @llvm.lifetime.start.p0(i64 240, ptr nonnull %10) #5
  invoke void @_ZN4Luau7CodeGen3X6416IrCallWrapperX64C1ERNS1_13IrRegAllocX64ERNS1_18AssemblyBuilderX64Ej(ptr noundef nonnull align 8 dereferenceable(240) %10, ptr noundef nonnull align 8 dereferenceable(256) %0, ptr noundef nonnull align 8 dereferenceable(252) %1, i32 noundef -1)
          to label %16 unwind label %26

16:                                               ; preds = %15
  invoke void @_ZN4Luau7CodeGen3X6416IrCallWrapperX6411addArgumentENS1_7SizeX64ENS1_10OperandX64ENS0_4IrOpE(ptr noundef nonnull align 8 dereferenceable(240) %10, i8 noundef zeroext 4, i64 276594688, i32 0)
          to label %17 unwind label %26

17:                                               ; preds = %16
  %.sroa.3.0.insert.ext = zext i8 %2 to i64
  %.sroa.3.0.insert.shift = shl nuw nsw i64 %.sroa.3.0.insert.ext, 16
  %.sroa.2.0.insert.insert = or disjoint i64 %.sroa.3.0.insert.shift, 268468224
  invoke void @_ZN4Luau7CodeGen3X6416IrCallWrapperX6411addArgumentENS1_7SizeX64ENS1_10OperandX64ENS0_4IrOpE(ptr noundef nonnull align 8 dereferenceable(240) %10, i8 noundef zeroext 4, i64 %.sroa.2.0.insert.insert, i32 %3)
          to label %18 unwind label %26

18:                                               ; preds = %17
  invoke void @_ZN4Luau7CodeGen3X6416IrCallWrapperX6411addArgumentENS1_7SizeX64ERNS1_12ScopedRegX64E(ptr noundef nonnull align 8 dereferenceable(240) %10, i8 noundef zeroext 4, ptr noundef nonnull align 8 dereferenceable(9) %8)
          to label %19 unwind label %26

19:                                               ; preds = %18
  call void @llvm.lifetime.start.p0(i64 8, ptr nonnull %11) #5
  store i64 824976375809, ptr %11, align 8
  invoke void @_ZN4Luau7CodeGen3X6416IrCallWrapperX644callERKNS1_10OperandX64E(ptr noundef nonnull align 8 dereferenceable(240) %10, ptr noundef nonnull align 4 dereferenceable(8) %11)
          to label %20 unwind label %28

20:                                               ; preds = %19
  call void @llvm.lifetime.end.p0(i64 8, ptr nonnull %11) #5
  call void @llvm.lifetime.end.p0(i64 240, ptr nonnull %10) #5
  call void @_ZN4Luau7CodeGen3X6412ScopedSpillsD1Ev(ptr noundef nonnull align 8 dereferenceable(12) %9) #5
  call void @llvm.lifetime.end.p0(i64 16, ptr nonnull %9) #5
  invoke void @_ZN4Luau7CodeGen3X6418AssemblyBuilderX648setLabelERNS0_5LabelE(ptr noundef nonnull align 8 dereferenceable(252) %1, ptr noundef nonnull align 4 dereferenceable(8) %7)
          to label %21 unwind label %22

21:                                               ; preds = %20
  call void @_ZN4Luau7CodeGen3X6412ScopedRegX64D1Ev(ptr noundef nonnull align 8 dereferenceable(9) %8) #5
  call void @llvm.lifetime.end.p0(i64 16, ptr nonnull %8) #5
  call void @llvm.lifetime.end.p0(i64 8, ptr nonnull %7) #5
  ret void

22:                                               ; preds = %20, %6
  %23 = landingpad { ptr, i32 }
          cleanup
  br label %32

24:                                               ; preds = %14
  %25 = landingpad { ptr, i32 }
          cleanup
  br label %31

26:                                               ; preds = %18, %17, %16, %15
  %27 = landingpad { ptr, i32 }
          cleanup
  br label %30

28:                                               ; preds = %19
  %29 = landingpad { ptr, i32 }
          cleanup
  call void @llvm.lifetime.end.p0(i64 8, ptr nonnull %11) #5
  br label %30

30:                                               ; preds = %28, %26
  %.pn = phi { ptr, i32 } [ %29, %28 ], [ %27, %26 ]
  call void @llvm.lifetime.end.p0(i64 240, ptr nonnull %10) #5
  call void @_ZN4Luau7CodeGen3X6412ScopedSpillsD1Ev(ptr noundef nonnull align 8 dereferenceable(12) %9) #5
  br label %31

31:                                               ; preds = %30, %24
  %.pn.pn = phi { ptr, i32 } [ %.pn, %30 ], [ %25, %24 ]
  call void @llvm.lifetime.end.p0(i64 16, ptr nonnull %9) #5
  br label %32

32:                                               ; preds = %31, %22
  %.pn23 = phi { ptr, i32 } [ %23, %22 ], [ %.pn.pn, %31 ]
  call void @_ZN4Luau7CodeGen3X6412ScopedRegX64D1Ev(ptr noundef nonnull align 8 dereferenceable(9) %8) #5
  call void @llvm.lifetime.end.p0(i64 16, ptr nonnull %8) #5
  call void @llvm.lifetime.end.p0(i64 8, ptr nonnull %7) #5
  resume { ptr, i32 } %.pn23
}